; Function Attrs: mustprogress nofree norecurse nosync nounwind willreturn memory(argmem: readwrite, inaccessiblemem: readwrite) uwtable
define void @_ZNK4LIEF5MachO9FatBinary3endEv(ptr dead_on_unwind noalias nocapture writable writeonly sret(%"class.LIEF::ref_iterator.0") align 8 %0, ptr noundef nonnull align 8 dereferenceable(32) %1) local_unnamed_addr #5 align 2 {
  %3 = getelementptr inbounds i8, ptr %1, i64 8
  tail call void @llvm.experimental.noalias.scope.decl(metadata !9)
  store ptr %3, ptr %0, align 8, !alias.scope !9
  %4 = getelementptr inbounds i8, ptr %0, i64 8
  %5 = load ptr, ptr %3, align 8, !noalias !9
  %6 = getelementptr inbounds i8, ptr %1, i64 16
  %7 = load ptr, ptr %6, align 8, !noalias !9
  store ptr %7, ptr %4, align 8, !alias.scope !9
  %8 = ptrtoint ptr %7 to i64
  %9 = ptrtoint ptr %5 to i64
  %10 = sub i64 %8, %9
  %11 = ashr exact i64 %10, 3
  %12 = getelementptr inbounds i8, ptr %0, i64 16
  store i64 %11, ptr %12, align 8, !alias.scope !9
  ret void
}